; Function Attrs: nounwind uwtable
define void @Pla_PrintCube(ptr noundef readonly captures(none) %0, i32 noundef %1, i32 noundef %2) local_unnamed_addr #0 {
  %4 = add nsw i32 %1, 1
  %or.cond.i.i = icmp ult i32 %1, 15
  %spec.store.select.i.i = select i1 %or.cond.i.i, i32 16, i32 %4
  %.not.i.i = icmp eq i32 %spec.store.select.i.i, 0
  br i1 %.not.i.i, label %Vec_StrStart.exit, label %5

5:                                                ; preds = %3
  %6 = sext i32 %spec.store.select.i.i to i64
  %7 = tail call noalias ptr @malloc(i64 noundef %6) #17
  br label %Vec_StrStart.exit

Vec_StrStart.exit:                                ; preds = %3, %5
  %.val15 = phi ptr [ %7, %5 ], [ null, %3 ]
  %8 = sext i32 %4 to i64
  tail call void @llvm.memset.p0.i64(ptr align 1 %.val15, i8 0, i64 %8, i1 false)
  %9 = icmp sgt i32 %1, 0
  br i1 %9, label %.lr.ph.i.preheader, label %Vec_StrFill.exit

.lr.ph.i.preheader:                               ; preds = %Vec_StrStart.exit
  %10 = zext nneg i32 %1 to i64
  tail call void @llvm.memset.p0.i64(ptr align 1 %.val15, i8 45, i64 %10, i1 false), !tbaa !45
  br label %Vec_StrFill.exit

Vec_StrFill.exit:                                 ; preds = %.lr.ph.i.preheader, %Vec_StrStart.exit
  %11 = getelementptr i8, ptr %0, i64 4
  %.val17 = load i32, ptr %11, align 4, !tbaa !3
  %12 = icmp sgt i32 %.val17, 0
  br i1 %12, label %.lr.ph, label %.critedge

.lr.ph:                                           ; preds = %Vec_StrFill.exit
  %13 = getelementptr i8, ptr %0, i64 8
  %.val13.pre = load ptr, ptr %13, align 8, !tbaa !11
  %14 = zext nneg i32 %.val17 to i64
  br label %15

15:                                               ; preds = %.lr.ph, %15
  %indvars.iv = phi i64 [ 0, %.lr.ph ], [ %indvars.iv.next, %15 ]
  %16 = getelementptr inbounds nuw i32, ptr %.val13.pre, i64 %indvars.iv
  %17 = load i32, ptr %16, align 4, !tbaa !16
  %18 = ashr i32 %17, 1
  %19 = and i32 %17, 1
  %.not = icmp eq i32 %19, 0
  %20 = select i1 %.not, i8 49, i8 48
  %21 = sext i32 %18 to i64
  %22 = getelementptr inbounds i8, ptr %.val15, i64 %21
  store i8 %20, ptr %22, align 1, !tbaa !45
  %indvars.iv.next = add nuw nsw i64 %indvars.iv, 1
  %23 = icmp samesign ult i64 %indvars.iv.next, %14
  br i1 %23, label %15, label %.critedge.thread, !llvm.loop !46

.critedge.thread:                                 ; preds = %15
  %24 = load ptr, ptr @stdout, align 8, !tbaa !47
  %25 = tail call i32 (ptr, ptr, ...) @fprintf(ptr noundef %24, ptr noundef nonnull @.str.2, ptr noundef nonnull %.val15, i32 noundef %2) #19
  br label %28

.critedge:                                        ; preds = %Vec_StrFill.exit
  %26 = load ptr, ptr @stdout, align 8, !tbaa !47
  %27 = tail call i32 (ptr, ptr, ...) @fprintf(ptr noundef %26, ptr noundef nonnull @.str.2, ptr noundef %.val15, i32 noundef %2) #19
  %.not.i = icmp eq ptr %.val15, null
  br i1 %.not.i, label %Vec_StrFree.exit, label %28

28:                                               ; preds = %.critedge.thread, %.critedge
  tail call void @free(ptr noundef nonnull %.val15) #19
  br label %Vec_StrFree.exit

Vec_StrFree.exit:                                 ; preds = %.critedge, %28
  ret void
}